target datalayout = "e-m:e-p270:32:32-p271:32:32-p272:64:64-i64:64-i128:128-f80:128-n8:16:32:64-S128"
target triple = "x86_64-pc-linux-gnu"

%struct.Amap_Lib_t_ = type { ptr, ptr, ptr, ptr, ptr, ptr, ptr, ptr, ptr, i32, i32, i32, ptr, i32, i32, ptr, ptr, ptr, ptr, ptr, ptr, i32 }
%struct.Vec_Ptr_t_ = type { i32, i32, ptr }
%struct.timespec = type { i64, i64 }

@.str.19 = private unnamed_addr constant [31 x i8] c"Read %d gates from file \22%s\22.\0A\00", align 1
@.str.20 = private unnamed_addr constant [40 x i8] c"Selected %d functionally unique gates. \00", align 1
@.str.21 = private unnamed_addr constant [5 x i8] c"%s =\00", align 1
@.str.22 = private unnamed_addr constant [5 x i8] c"Time\00", align 1
@.str.23 = private unnamed_addr constant [11 x i8] c"%9.2f sec\0A\00", align 1
@.str.24 = private unnamed_addr constant [34 x i8] c"Created %d rules and %d matches. \00", align 1

; Function Attrs: nounwind uwtable
define internal ptr @Vec_PtrArray(ptr noundef %0) #0 {
  %2 = alloca ptr, align 8
  store ptr %0, ptr %2, align 8
  %3 = load ptr, ptr %2, align 8
  %4 = getelementptr inbounds %struct.Vec_Ptr_t_, ptr %3, i32 0, i32 2
  %5 = load ptr, ptr %4, align 8
  ret ptr %5
}

; Function Attrs: nounwind uwtable
define internal ptr @Vec_PtrDup(ptr noundef %0) #0 {
  %2 = alloca ptr, align 8
  %3 = alloca ptr, align 8
  store ptr %0, ptr %2, align 8
  %4 = call noalias ptr @malloc(i64 noundef 16) #9
  store ptr %4, ptr %3, align 8
  %5 = load ptr, ptr %2, align 8
  %6 = getelementptr inbounds %struct.Vec_Ptr_t_, ptr %5, i32 0, i32 1
  %7 = load i32, ptr %6, align 4
  %8 = load ptr, ptr %3, align 8
  %9 = getelementptr inbounds %struct.Vec_Ptr_t_, ptr %8, i32 0, i32 1
  store i32 %7, ptr %9, align 4
  %10 = load ptr, ptr %2, align 8
  %11 = getelementptr inbounds %struct.Vec_Ptr_t_, ptr %10, i32 0, i32 0
  %12 = load i32, ptr %11, align 8
  %13 = load ptr, ptr %3, align 8
  %14 = getelementptr inbounds %struct.Vec_Ptr_t_, ptr %13, i32 0, i32 0
  store i32 %12, ptr %14, align 8
  %15 = load ptr, ptr %3, align 8
  %16 = getelementptr inbounds %struct.Vec_Ptr_t_, ptr %15, i32 0, i32 0
  %17 = load i32, ptr %16, align 8
  %18 = icmp ne i32 %17, 0
  br i1 %18, label %19, label %26

19:                                               ; preds = %1
  %20 = load ptr, ptr %3, align 8
  %21 = getelementptr inbounds %struct.Vec_Ptr_t_, ptr %20, i32 0, i32 0
  %22 = load i32, ptr %21, align 8
  %23 = sext i32 %22 to i64
  %24 = mul i64 8, %23
  %25 = call noalias ptr @malloc(i64 noundef %24) #9
  br label %27

26:                                               ; preds = %1
  br label %27

27:                                               ; preds = %26, %19
  %28 = phi ptr [ %25, %19 ], [ null, %26 ]
  %29 = load ptr, ptr %3, align 8
  %30 = getelementptr inbounds %struct.Vec_Ptr_t_, ptr %29, i32 0, i32 2
  store ptr %28, ptr %30, align 8
  %31 = load ptr, ptr %3, align 8
  %32 = getelementptr inbounds %struct.Vec_Ptr_t_, ptr %31, i32 0, i32 2
  %33 = load ptr, ptr %32, align 8
  %34 = load ptr, ptr %2, align 8
  %35 = getelementptr inbounds %struct.Vec_Ptr_t_, ptr %34, i32 0, i32 2
  %36 = load ptr, ptr %35, align 8
  %37 = load ptr, ptr %2, align 8
  %38 = getelementptr inbounds %struct.Vec_Ptr_t_, ptr %37, i32 0, i32 1
  %39 = load i32, ptr %38, align 4
  %40 = sext i32 %39 to i64
  %41 = mul i64 8, %40
  call void @llvm.memcpy.p0.p0.i64(ptr align 8 %33, ptr align 8 %36, i64 %41, i1 false)
  %42 = load ptr, ptr %3, align 8
  ret ptr %42
}

; Function Attrs: nounwind uwtable
define ptr @Amap_LibSortGatesByArea(ptr noundef %0) #0 {
  %2 = alloca ptr, align 8
  %3 = alloca ptr, align 8
  store ptr %0, ptr %2, align 8
  %4 = load ptr, ptr %2, align 8
  %5 = getelementptr inbounds %struct.Amap_Lib_t_, ptr %4, i32 0, i32 1
  %6 = load ptr, ptr %5, align 8
  %7 = call ptr @Vec_PtrDup(ptr noundef %6)
  store ptr %7, ptr %3, align 8
  %8 = load ptr, ptr %3, align 8
  %9 = call ptr @Vec_PtrArray(ptr noundef %8)
  %10 = load ptr, ptr %3, align 8
  %11 = call i32 @Vec_PtrSize(ptr noundef %10)
  %12 = sext i32 %11 to i64
  call void @qsort(ptr noundef %9, i64 noundef %12, i64 noundef 8, ptr noundef @Amap_LibCompareGatesByArea)
  %13 = load ptr, ptr %3, align 8
  ret ptr %13
}

; Function Attrs: nounwind uwtable
define internal i32 @Vec_PtrSize(ptr noundef %0) #0 {
  %2 = alloca ptr, align 8
  store ptr %0, ptr %2, align 8
  %3 = load ptr, ptr %2, align 8
  %4 = getelementptr inbounds %struct.Vec_Ptr_t_, ptr %3, i32 0, i32 1
  %5 = load i32, ptr %4, align 4
  ret i32 %5
}

; Function Attrs: nounwind uwtable
define internal ptr @Abc_UtilStrsav(ptr noundef %0) #0 {
  %2 = alloca ptr, align 8
  store ptr %0, ptr %2, align 8
  %3 = load ptr, ptr %2, align 8
  %4 = icmp ne ptr %3, null
  br i1 %4, label %5, label %13

5:                                                ; preds = %1
  %6 = load ptr, ptr %2, align 8
  %7 = call i64 @strlen(ptr noundef %6) #11
  %8 = add i64 %7, 1
  %9 = mul i64 1, %8
  %10 = call noalias ptr @malloc(i64 noundef %9) #9
  %11 = load ptr, ptr %2, align 8
  %12 = call ptr @strcpy(ptr noundef %10, ptr noundef %11) #10
  br label %14

13:                                               ; preds = %1
  br label %14

14:                                               ; preds = %13, %5
  %15 = phi ptr [ %12, %5 ], [ null, %13 ]
  ret ptr %15
}

; Function Attrs: nounwind uwtable
define internal i64 @Abc_Clock() #0 {
  %1 = alloca i64, align 8
  %2 = alloca %struct.timespec, align 8
  %3 = alloca i64, align 8
  %4 = call i32 @clock_gettime(i32 noundef 1, ptr noundef %2) #10
  %5 = icmp slt i32 %4, 0
  br i1 %5, label %6, label %7

6:                                                ; preds = %0
  store i64 -1, ptr %1, align 8
  br label %18

7:                                                ; preds = %0
  %8 = getelementptr inbounds %struct.timespec, ptr %2, i32 0, i32 0
  %9 = load i64, ptr %8, align 8
  %10 = mul nsw i64 %9, 1000000
  store i64 %10, ptr %3, align 8
  %11 = getelementptr inbounds %struct.timespec, ptr %2, i32 0, i32 1
  %12 = load i64, ptr %11, align 8
  %13 = mul nsw i64 %12, 1000000
  %14 = sdiv i64 %13, 1000000000
  %15 = load i64, ptr %3, align 8
  %16 = add nsw i64 %15, %14
  store i64 %16, ptr %3, align 8
  %17 = load i64, ptr %3, align 8
  store i64 %17, ptr %1, align 8
  br label %18

18:                                               ; preds = %7, %6
  %19 = load i64, ptr %1, align 8
  ret i64 %19
}

; Function Attrs: nounwind uwtable
define ptr @Amap_LibReadAndPrepare(ptr noundef %0, ptr noundef %1, i32 noundef %2, i32 noundef %3) #0 {
  %5 = alloca ptr, align 8
  %6 = alloca ptr, align 8
  %7 = alloca ptr, align 8
  %8 = alloca i32, align 4
  %9 = alloca i32, align 4
  %10 = alloca ptr, align 8
  %11 = alloca i64, align 8
  store ptr %0, ptr %6, align 8
  store ptr %1, ptr %7, align 8
  store i32 %2, ptr %8, align 4
  store i32 %3, ptr %9, align 4
  %12 = call i64 @Abc_Clock()
  store i64 %12, ptr %11, align 8
  %13 = load ptr, ptr %7, align 8
  %14 = icmp eq ptr %13, null
  br i1 %14, label %15, label %19

15:                                               ; preds = %4
  %16 = load ptr, ptr %6, align 8
  %17 = load i32, ptr %8, align 4
  %18 = call ptr @Amap_LibReadFile(ptr noundef %16, i32 noundef %17)
  store ptr %18, ptr %10, align 8
  br label %31

19:                                               ; preds = %4
  %20 = load ptr, ptr %7, align 8
  %21 = load i32, ptr %8, align 4
  %22 = call ptr @Amap_LibReadBuffer(ptr noundef %20, i32 noundef %21)
  store ptr %22, ptr %10, align 8
  %23 = load ptr, ptr %10, align 8
  %24 = icmp ne ptr %23, null
  br i1 %24, label %25, label %30

25:                                               ; preds = %19
  %26 = load ptr, ptr %6, align 8
  %27 = call ptr @Abc_UtilStrsav(ptr noundef %26)
  %28 = load ptr, ptr %10, align 8
  %29 = getelementptr inbounds %struct.Amap_Lib_t_, ptr %28, i32 0, i32 0
  store ptr %27, ptr %29, align 8
  br label %30

30:                                               ; preds = %25, %19
  br label %31

31:                                               ; preds = %30, %15
  %32 = load i32, ptr %8, align 4
  %33 = icmp ne i32 %32, 0
  br i1 %33, label %34, label %41

34:                                               ; preds = %31
  %35 = load ptr, ptr %10, align 8
  %36 = getelementptr inbounds %struct.Amap_Lib_t_, ptr %35, i32 0, i32 1
  %37 = load ptr, ptr %36, align 8
  %38 = call i32 @Vec_PtrSize(ptr noundef %37)
  %39 = load ptr, ptr %6, align 8
  %40 = call i32 (ptr, ...) @printf(ptr noundef @.str.19, i32 noundef %38, ptr noundef %39)
  br label %41

41:                                               ; preds = %34, %31
  %42 = load ptr, ptr %10, align 8
  %43 = icmp eq ptr %42, null
  br i1 %43, label %44, label %45

44:                                               ; preds = %41
  store ptr null, ptr %5, align 8
  br label %98

45:                                               ; preds = %41
  %46 = load ptr, ptr %10, align 8
  %47 = load i32, ptr %8, align 4
  %48 = call i32 @Amap_LibParseEquations(ptr noundef %46, i32 noundef %47)
  %49 = icmp ne i32 %48, 0
  br i1 %49, label %52, label %50

50:                                               ; preds = %45
  %51 = load ptr, ptr %10, align 8
  call void @Amap_LibFree(ptr noundef %51)
  store ptr null, ptr %5, align 8
  br label %98

52:                                               ; preds = %45
  %53 = load ptr, ptr %10, align 8
  %54 = call ptr @Amap_LibSortGatesByArea(ptr noundef %53)
  %55 = load ptr, ptr %10, align 8
  %56 = getelementptr inbounds %struct.Amap_Lib_t_, ptr %55, i32 0, i32 2
  store ptr %54, ptr %56, align 8
  %57 = load ptr, ptr %10, align 8
  %58 = load i32, ptr %8, align 4
  %59 = call ptr @Amap_LibSelectGates(ptr noundef %57, i32 noundef %58)
  %60 = load ptr, ptr %10, align 8
  %61 = getelementptr inbounds %struct.Amap_Lib_t_, ptr %60, i32 0, i32 3
  store ptr %59, ptr %61, align 8
  %62 = load i32, ptr %8, align 4
  %63 = icmp ne i32 %62, 0
  br i1 %63, label %64, label %76

64:                                               ; preds = %52
  %65 = load ptr, ptr %10, align 8
  %66 = getelementptr inbounds %struct.Amap_Lib_t_, ptr %65, i32 0, i32 3
  %67 = load ptr, ptr %66, align 8
  %68 = call i32 @Vec_PtrSize(ptr noundef %67)
  %69 = call i32 (ptr, ...) @printf(ptr noundef @.str.20, i32 noundef %68)
  call void (i32, ptr, ...) @Abc_Print(i32 noundef 1, ptr noundef @.str.21, ptr noundef @.str.22)
  %70 = call i64 @Abc_Clock()
  %71 = load i64, ptr %11, align 8
  %72 = sub nsw i64 %70, %71
  %73 = sitofp i64 %72 to double
  %74 = fmul double 1.000000e+00, %73
  %75 = fdiv double %74, 1.000000e+06
  call void (i32, ptr, ...) @Abc_Print(i32 noundef 1, ptr noundef @.str.23, double noundef %75)
  br label %76

76:                                               ; preds = %64, %52
  %77 = call i64 @Abc_Clock()
  store i64 %77, ptr %11, align 8
  %78 = load ptr, ptr %10, align 8
  %79 = load i32, ptr %9, align 4
  call void @Amap_LibCreateRules(ptr noundef %78, i32 noundef %79)
  %80 = load i32, ptr %8, align 4
  %81 = icmp ne i32 %80, 0
  br i1 %81, label %82, label %96

82:                                               ; preds = %76
  %83 = load ptr, ptr %10, align 8
  %84 = getelementptr inbounds %struct.Amap_Lib_t_, ptr %83, i32 0, i32 13
  %85 = load i32, ptr %84, align 8
  %86 = load ptr, ptr %10, align 8
  %87 = getelementptr inbounds %struct.Amap_Lib_t_, ptr %86, i32 0, i32 21
  %88 = load i32, ptr %87, align 8
  %89 = call i32 (ptr, ...) @printf(ptr noundef @.str.24, i32 noundef %85, i32 noundef %88)
  call void (i32, ptr, ...) @Abc_Print(i32 noundef 1, ptr noundef @.str.21, ptr noundef @.str.22)
  %90 = call i64 @Abc_Clock()
  %91 = load i64, ptr %11, align 8
  %92 = sub nsw i64 %90, %91
  %93 = sitofp i64 %92 to double
  %94 = fmul double 1.000000e+00, %93
  %95 = fdiv double %94, 1.000000e+06
  call void (i32, ptr, ...) @Abc_Print(i32 noundef 1, ptr noundef @.str.23, double noundef %95)
  br label %96

96:                                               ; preds = %82, %76
  %97 = load ptr, ptr %10, align 8
  store ptr %97, ptr %5, align 8
  br label %98

98:                                               ; preds = %96, %50, %44
  %99 = load ptr, ptr %5, align 8
  ret ptr %99
}