; Function Attrs: nounwind uwtable
define ptr @Amap_LibReadAndPrepare(ptr noundef %0, ptr noundef %1, i32 noundef %2, i32 noundef %3) local_unnamed_addr #0 {
  %5 = alloca %struct.timespec, align 8
  %6 = alloca %struct.timespec, align 8
  %7 = alloca %struct.timespec, align 8
  %8 = alloca %struct.timespec, align 8
  call void @llvm.lifetime.start.p0(i64 16, ptr nonnull %8)
  %9 = call i32 @clock_gettime(i32 noundef 1, ptr noundef nonnull %8) #22
  %10 = icmp slt i32 %9, 0
  br i1 %10, label %Abc_Clock.exit, label %11

11:                                               ; preds = %4
  %12 = load i64, ptr %8, align 8
  %.neg54 = mul i64 %12, -1000000
  %13 = getelementptr inbounds nuw i8, ptr %8, i64 8
  %14 = load i64, ptr %13, align 8
  %.neg = sdiv i64 %14, -1000
  %.neg55 = add i64 %.neg, %.neg54
  br label %Abc_Clock.exit

Abc_Clock.exit:                                   ; preds = %4, %11
  %.0.i.neg = phi i64 [ %.neg55, %11 ], [ 1, %4 ]
  call void @llvm.lifetime.end.p0(i64 16, ptr nonnull %8)
  %15 = icmp eq ptr %1, null
  br i1 %15, label %16, label %18

16:                                               ; preds = %Abc_Clock.exit
  %17 = call ptr @Amap_LibReadFile(ptr noundef %0, i32 noundef %2) #22
  br label %27

18:                                               ; preds = %Abc_Clock.exit
  %19 = call ptr @Amap_LibReadBuffer(ptr noundef nonnull %1, i32 noundef %2) #22
  %.not = icmp eq ptr %19, null
  br i1 %.not, label %.thread42, label %20

20:                                               ; preds = %18
  %.not.i = icmp eq ptr %0, null
  br i1 %.not.i, label %Abc_UtilStrsav.exit, label %21

21:                                               ; preds = %20
  %22 = call i64 @strlen(ptr noundef nonnull readonly dereferenceable(1) %0) #24
  %23 = add i64 %22, 1
  %24 = call noalias ptr @malloc(i64 noundef %23) #21
  %25 = call ptr @strcpy(ptr noundef nonnull dereferenceable(1) %24, ptr noundef nonnull readonly dereferenceable(1) %0) #22
  br label %Abc_UtilStrsav.exit

Abc_UtilStrsav.exit:                              ; preds = %20, %21
  %26 = phi ptr [ %24, %21 ], [ null, %20 ]
  store ptr %26, ptr %19, align 8
  br label %27

27:                                               ; preds = %Abc_UtilStrsav.exit, %16
  %.0 = phi ptr [ %17, %16 ], [ %19, %Abc_UtilStrsav.exit ]
  %.not33 = icmp eq i32 %2, 0
  br i1 %.not33, label %32, label %.thread

.thread42:                                        ; preds = %18
  %.not3344 = icmp eq i32 %2, 0
  call void @llvm.assume(i1 %.not3344)
  br label %.thread51

.thread:                                          ; preds = %27
  %28 = getelementptr inbounds nuw i8, ptr %.0, i64 8
  %29 = load ptr, ptr %28, align 8
  %30 = getelementptr i8, ptr %29, i64 4
  %.val35 = load i32, ptr %30, align 4
  %31 = call i32 (ptr, ...) @printf(ptr noundef nonnull dereferenceable(1) @.str.19, i32 noundef %.val35, ptr noundef %0)
  br label %34

32:                                               ; preds = %27
  %33 = icmp eq ptr %.0, null
  br i1 %33, label %.thread51, label %34

34:                                               ; preds = %.thread, %32
  %35 = call i32 @Amap_LibParseEquations(ptr noundef nonnull %.0, i32 noundef %2) #22
  %.not34 = icmp eq i32 %35, 0
  br i1 %.not34, label %36, label %37

36:                                               ; preds = %34
  call void @Amap_LibFree(ptr noundef nonnull %.0)
  br label %.thread51

37:                                               ; preds = %34
  %38 = getelementptr inbounds nuw i8, ptr %.0, i64 8
  %39 = load ptr, ptr %38, align 8
  %40 = call noalias dereferenceable_or_null(16) ptr @malloc(i64 noundef 16) #21
  %41 = getelementptr inbounds nuw i8, ptr %39, i64 4
  %42 = load i32, ptr %41, align 4
  %43 = getelementptr inbounds nuw i8, ptr %40, i64 4
  store i32 %42, ptr %43, align 4
  %44 = load i32, ptr %39, align 8
  store i32 %44, ptr %40, align 8
  %.not.i.i = icmp eq i32 %44, 0
  br i1 %.not.i.i, label %Amap_LibSortGatesByArea.exit, label %45

45:                                               ; preds = %37
  %46 = sext i32 %44 to i64
  %47 = shl nsw i64 %46, 3
  %48 = call noalias ptr @malloc(i64 noundef %47) #21
  br label %Amap_LibSortGatesByArea.exit

Amap_LibSortGatesByArea.exit:                     ; preds = %37, %45
  %49 = phi ptr [ %48, %45 ], [ null, %37 ]
  %50 = getelementptr inbounds nuw i8, ptr %40, i64 8
  store ptr %49, ptr %50, align 8
  %51 = getelementptr inbounds nuw i8, ptr %39, i64 8
  %52 = load ptr, ptr %51, align 8
  %53 = sext i32 %42 to i64
  %54 = shl nsw i64 %53, 3
  call void @llvm.memcpy.p0.p0.i64(ptr align 8 %49, ptr align 8 %52, i64 %54, i1 false)
  call void @qsort(ptr noundef %49, i64 noundef %53, i64 noundef 8, ptr noundef nonnull @Amap_LibCompareGatesByArea) #22
  %55 = getelementptr inbounds nuw i8, ptr %.0, i64 16
  store ptr %40, ptr %55, align 8
  %56 = call ptr @Amap_LibSelectGates(ptr noundef nonnull %.0, i32 poison)
  %57 = getelementptr inbounds nuw i8, ptr %.0, i64 24
  store ptr %56, ptr %57, align 8
  br i1 %.not33, label %73, label %58

58:                                               ; preds = %Amap_LibSortGatesByArea.exit
  %59 = getelementptr i8, ptr %56, i64 4
  %.val = load i32, ptr %59, align 4
  %60 = call i32 (ptr, ...) @printf(ptr noundef nonnull dereferenceable(1) @.str.20, i32 noundef %.val)
  call void (i32, ptr, ...) @Abc_Print(i32 poison, ptr noundef nonnull @.str.21, ptr noundef nonnull @.str.22)
  call void @llvm.lifetime.start.p0(i64 16, ptr nonnull %7)
  %61 = call i32 @clock_gettime(i32 noundef 1, ptr noundef nonnull %7) #22
  %62 = icmp slt i32 %61, 0
  br i1 %62, label %Abc_Clock.exit37, label %63

63:                                               ; preds = %58
  %64 = load i64, ptr %7, align 8
  %65 = mul nsw i64 %64, 1000000
  %66 = getelementptr inbounds nuw i8, ptr %7, i64 8
  %67 = load i64, ptr %66, align 8
  %68 = sdiv i64 %67, 1000
  %69 = add nsw i64 %68, %65
  br label %Abc_Clock.exit37

Abc_Clock.exit37:                                 ; preds = %58, %63
  %.0.i36 = phi i64 [ %69, %63 ], [ -1, %58 ]
  call void @llvm.lifetime.end.p0(i64 16, ptr nonnull %7)
  %70 = add i64 %.0.i36, %.0.i.neg
  %71 = sitofp i64 %70 to double
  %72 = fdiv double %71, 1.000000e+06
  call void (i32, ptr, ...) @Abc_Print(i32 poison, ptr noundef nonnull @.str.23, double noundef %72)
  br label %73

73:                                               ; preds = %Abc_Clock.exit37, %Amap_LibSortGatesByArea.exit
  call void @llvm.lifetime.start.p0(i64 16, ptr nonnull %6)
  %74 = call i32 @clock_gettime(i32 noundef 1, ptr noundef nonnull %6) #22
  %75 = icmp slt i32 %74, 0
  br i1 %75, label %Abc_Clock.exit39, label %76

76:                                               ; preds = %73
  %77 = load i64, ptr %6, align 8
  %.neg57 = mul i64 %77, -1000000
  %78 = getelementptr inbounds nuw i8, ptr %6, i64 8
  %79 = load i64, ptr %78, align 8
  %.neg56 = sdiv i64 %79, -1000
  %.neg58 = add i64 %.neg56, %.neg57
  br label %Abc_Clock.exit39

Abc_Clock.exit39:                                 ; preds = %73, %76
  %.0.i38.neg = phi i64 [ %.neg58, %76 ], [ 1, %73 ]
  call void @llvm.lifetime.end.p0(i64 16, ptr nonnull %6)
  call void @Amap_LibCreateRules(ptr noundef nonnull %.0, i32 noundef %3) #22
  br i1 %.not33, label %.thread51, label %80

80:                                               ; preds = %Abc_Clock.exit39
  %81 = getelementptr inbounds nuw i8, ptr %.0, i64 96
  %82 = load i32, ptr %81, align 8
  %83 = getelementptr inbounds nuw i8, ptr %.0, i64 152
  %84 = load i32, ptr %83, align 8
  %85 = call i32 (ptr, ...) @printf(ptr noundef nonnull dereferenceable(1) @.str.24, i32 noundef %82, i32 noundef %84)
  call void (i32, ptr, ...) @Abc_Print(i32 poison, ptr noundef nonnull @.str.21, ptr noundef nonnull @.str.22)
  call void @llvm.lifetime.start.p0(i64 16, ptr nonnull %5)
  %86 = call i32 @clock_gettime(i32 noundef 1, ptr noundef nonnull %5) #22
  %87 = icmp slt i32 %86, 0
  br i1 %87, label %Abc_Clock.exit41, label %88

88:                                               ; preds = %80
  %89 = load i64, ptr %5, align 8
  %90 = mul nsw i64 %89, 1000000
  %91 = getelementptr inbounds nuw i8, ptr %5, i64 8
  %92 = load i64, ptr %91, align 8
  %93 = sdiv i64 %92, 1000
  %94 = add nsw i64 %93, %90
  br label %Abc_Clock.exit41

Abc_Clock.exit41:                                 ; preds = %80, %88
  %.0.i40 = phi i64 [ %94, %88 ], [ -1, %80 ]
  call void @llvm.lifetime.end.p0(i64 16, ptr nonnull %5)
  %95 = add i64 %.0.i40, %.0.i38.neg
  %96 = sitofp i64 %95 to double
  %97 = fdiv double %96, 1.000000e+06
  call void (i32, ptr, ...) @Abc_Print(i32 poison, ptr noundef nonnull @.str.23, double noundef %97)
  br label %.thread51

.thread51:                                        ; preds = %.thread42, %Abc_Clock.exit39, %Abc_Clock.exit41, %32, %36
  %.030 = phi ptr [ null, %36 ], [ null, %32 ], [ %.0, %Abc_Clock.exit41 ], [ %.0, %Abc_Clock.exit39 ], [ null, %.thread42 ]
  ret ptr %.030
}